; ModuleID = '19/2151.c'
source_filename = "19/2151.c"
target datalayout = "e-m:e-p270:32:32-p271:32:32-p272:64:64-i64:64-f80:128-n8:16:32:64-S128"
target triple = "x86_64-pc-linux-gnu"

@.str = private unnamed_addr constant [4 x i8] c"%s\0A\00", align 1
@.str.1 = private unnamed_addr constant [3 x i8] c"%c\00", align 1

; Function Attrs: noinline nounwind uwtable
define dso_local i32 @main() #0 {
  %1 = alloca i32, align 4
  %2 = alloca [1000 x i8], align 16
  %3 = alloca [1000 x i8], align 16
  %4 = alloca [1000 x i8], align 16
  %5 = alloca [1000 x [1000 x i8]], align 16
  %6 = alloca i32, align 4
  %7 = alloca i32, align 4
  %8 = alloca i32, align 4
  %9 = alloca i32, align 4
  %10 = alloca i32, align 4
  %11 = alloca i32, align 4
  %12 = alloca i32, align 4
  %13 = alloca i32, align 4
  store i32 0, i32* %1, align 4
  %14 = bitcast [1000 x [1000 x i8]]* %5 to i8*
  call void @llvm.memset.p0i8.i64(i8* align 16 %14, i8 0, i64 1000000, i1 false)
  store i32 0, i32* %8, align 4
  store i32 0, i32* %12, align 4
  %15 = getelementptr inbounds [1000 x i8], [1000 x i8]* %2, i64 0, i64 0
  %16 = call i32 (i8*, ...) bitcast (i32 (...)* @gets to i32 (i8*, ...)*)(i8* %15)
  %17 = getelementptr inbounds [1000 x i8], [1000 x i8]* %3, i64 0, i64 0
  %18 = call i32 (i8*, ...) bitcast (i32 (...)* @gets to i32 (i8*, ...)*)(i8* %17)
  %19 = getelementptr inbounds [1000 x i8], [1000 x i8]* %4, i64 0, i64 0
  %20 = call i32 (i8*, ...) bitcast (i32 (...)* @gets to i32 (i8*, ...)*)(i8* %19)
  %21 = getelementptr inbounds [1000 x i8], [1000 x i8]* %2, i64 0, i64 0
  %22 = call i64 @strlen(i8* %21) #5
  %23 = trunc i64 %22 to i32
  store i32 %23, i32* %10, align 4
  %24 = load i32, i32* %8, align 4
  store i32 %24, i32* %6, align 4
  br label %25

25:                                               ; preds = %85, %0
  %26 = load i32, i32* %6, align 4
  %27 = load i32, i32* %10, align 4
  %28 = icmp slt i32 %26, %27
  br i1 %28, label %29, label %88

29:                                               ; preds = %25
  store i32 0, i32* %11, align 4
  %30 = load i32, i32* %6, align 4
  %31 = sext i32 %30 to i64
  %32 = getelementptr inbounds [1000 x i8], [1000 x i8]* %2, i64 0, i64 %31
  %33 = load i8, i8* %32, align 1
  %34 = sext i8 %33 to i32
  %35 = icmp ne i32 %34, 32
  br i1 %35, label %36, label %84

36:                                               ; preds = %29
  %37 = load i32, i32* %6, align 4
  %38 = add nsw i32 %37, 1
  %39 = sext i32 %38 to i64
  %40 = getelementptr inbounds [1000 x i8], [1000 x i8]* %2, i64 0, i64 %39
  %41 = load i8, i8* %40, align 1
  %42 = sext i8 %41 to i32
  %43 = icmp eq i32 %42, 32
  br i1 %43, label %52, label %44

44:                                               ; preds = %36
  %45 = load i32, i32* %6, align 4
  %46 = add nsw i32 %45, 1
  %47 = sext i32 %46 to i64
  %48 = getelementptr inbounds [1000 x i8], [1000 x i8]* %2, i64 0, i64 %47
  %49 = load i8, i8* %48, align 1
  %50 = sext i8 %49 to i32
  %51 = icmp eq i32 %50, 0
  br i1 %51, label %52, label %84

52:                                               ; preds = %44, %36
  %53 = load i32, i32* %8, align 4
  store i32 %53, i32* %7, align 4
  br label %54

54:                                               ; preds = %70, %52
  %55 = load i32, i32* %7, align 4
  %56 = load i32, i32* %6, align 4
  %57 = icmp sle i32 %55, %56
  br i1 %57, label %58, label %73

58:                                               ; preds = %54
  %59 = load i32, i32* %7, align 4
  %60 = sext i32 %59 to i64
  %61 = getelementptr inbounds [1000 x i8], [1000 x i8]* %2, i64 0, i64 %60
  %62 = load i8, i8* %61, align 1
  %63 = load i32, i32* %12, align 4
  %64 = sext i32 %63 to i64
  %65 = getelementptr inbounds [1000 x [1000 x i8]], [1000 x [1000 x i8]]* %5, i64 0, i64 %64
  %66 = load i32, i32* %11, align 4
  %67 = add nsw i32 %66, 1
  store i32 %67, i32* %11, align 4
  %68 = sext i32 %66 to i64
  %69 = getelementptr inbounds [1000 x i8], [1000 x i8]* %65, i64 0, i64 %68
  store i8 %62, i8* %69, align 1
  br label %70

70:                                               ; preds = %58
  %71 = load i32, i32* %7, align 4
  %72 = add nsw i32 %71, 1
  store i32 %72, i32* %7, align 4
  br label %54

73:                                               ; preds = %54
  %74 = load i32, i32* %12, align 4
  %75 = sext i32 %74 to i64
  %76 = getelementptr inbounds [1000 x [1000 x i8]], [1000 x [1000 x i8]]* %5, i64 0, i64 %75
  %77 = load i32, i32* %11, align 4
  %78 = sext i32 %77 to i64
  %79 = getelementptr inbounds [1000 x i8], [1000 x i8]* %76, i64 0, i64 %78
  store i8 0, i8* %79, align 1
  %80 = load i32, i32* %12, align 4
  %81 = add nsw i32 %80, 1
  store i32 %81, i32* %12, align 4
  %82 = load i32, i32* %6, align 4
  %83 = add nsw i32 %82, 2
  store i32 %83, i32* %8, align 4
  br label %84

84:                                               ; preds = %73, %44, %29
  br label %85

85:                                               ; preds = %84
  %86 = load i32, i32* %6, align 4
  %87 = add nsw i32 %86, 1
  store i32 %87, i32* %6, align 4
  br label %25

88:                                               ; preds = %25
  store i32 0, i32* %9, align 4
  store i32 0, i32* %6, align 4
  br label %89

89:                                               ; preds = %109, %88
  %90 = load i32, i32* %6, align 4
  %91 = load i32, i32* %12, align 4
  %92 = icmp slt i32 %90, %91
  br i1 %92, label %93, label %112

93:                                               ; preds = %89
  %94 = getelementptr inbounds [1000 x i8], [1000 x i8]* %3, i64 0, i64 0
  %95 = load i32, i32* %6, align 4
  %96 = sext i32 %95 to i64
  %97 = getelementptr inbounds [1000 x [1000 x i8]], [1000 x [1000 x i8]]* %5, i64 0, i64 %96
  %98 = getelementptr inbounds [1000 x i8], [1000 x i8]* %97, i64 0, i64 0
  %99 = call i32 @strcmp(i8* %94, i8* %98) #5
  %100 = icmp eq i32 %99, 0
  br i1 %100, label %101, label %108

101:                                              ; preds = %93
  %102 = load i32, i32* %6, align 4
  %103 = sext i32 %102 to i64
  %104 = getelementptr inbounds [1000 x [1000 x i8]], [1000 x [1000 x i8]]* %5, i64 0, i64 %103
  %105 = getelementptr inbounds [1000 x i8], [1000 x i8]* %104, i64 0, i64 0
  %106 = getelementptr inbounds [1000 x i8], [1000 x i8]* %4, i64 0, i64 0
  %107 = call i8* @strcpy(i8* %105, i8* %106) #6
  store i32 1, i32* %9, align 4
  br label %108

108:                                              ; preds = %101, %93
  br label %109

109:                                              ; preds = %108
  %110 = load i32, i32* %6, align 4
  %111 = add nsw i32 %110, 1
  store i32 %111, i32* %6, align 4
  br label %89

112:                                              ; preds = %89
  %113 = load i32, i32* %9, align 4
  %114 = icmp eq i32 %113, 0
  br i1 %114, label %115, label %118

115:                                              ; preds = %112
  %116 = getelementptr inbounds [1000 x i8], [1000 x i8]* %2, i64 0, i64 0
  %117 = call i32 (i8*, ...) @printf(i8* getelementptr inbounds ([4 x i8], [4 x i8]* @.str, i64 0, i64 0), i8* %116)
  br label %160

118:                                              ; preds = %112
  store i32 0, i32* %6, align 4
  br label %119

119:                                              ; preds = %150, %118
  %120 = load i32, i32* %6, align 4
  %121 = load i32, i32* %12, align 4
  %122 = sub nsw i32 %121, 1
  %123 = icmp slt i32 %120, %122
  br i1 %123, label %124, label %153

124:                                              ; preds = %119
  %125 = load i32, i32* %6, align 4
  %126 = sext i32 %125 to i64
  %127 = getelementptr inbounds [1000 x [1000 x i8]], [1000 x [1000 x i8]]* %5, i64 0, i64 %126
  %128 = getelementptr inbounds [1000 x i8], [1000 x i8]* %127, i64 0, i64 0
  %129 = call i64 @strlen(i8* %128) #5
  %130 = trunc i64 %129 to i32
  store i32 %130, i32* %13, align 4
  store i32 0, i32* %7, align 4
  br label %131

131:                                              ; preds = %145, %124
  %132 = load i32, i32* %7, align 4
  %133 = load i32, i32* %13, align 4
  %134 = icmp slt i32 %132, %133
  br i1 %134, label %135, label %148

135:                                              ; preds = %131
  %136 = load i32, i32* %6, align 4
  %137 = sext i32 %136 to i64
  %138 = getelementptr inbounds [1000 x [1000 x i8]], [1000 x [1000 x i8]]* %5, i64 0, i64 %137
  %139 = load i32, i32* %7, align 4
  %140 = sext i32 %139 to i64
  %141 = getelementptr inbounds [1000 x i8], [1000 x i8]* %138, i64 0, i64 %140
  %142 = load i8, i8* %141, align 1
  %143 = sext i8 %142 to i32
  %144 = call i32 (i8*, ...) @printf(i8* getelementptr inbounds ([3 x i8], [3 x i8]* @.str.1, i64 0, i64 0), i32 %143)
  br label %145

145:                                              ; preds = %135
  %146 = load i32, i32* %7, align 4
  %147 = add nsw i32 %146, 1
  store i32 %147, i32* %7, align 4
  br label %131

148:                                              ; preds = %131
  %149 = call i32 (i8*, ...) @printf(i8* getelementptr inbounds ([3 x i8], [3 x i8]* @.str.1, i64 0, i64 0), i32 32)
  br label %150

150:                                              ; preds = %148
  %151 = load i32, i32* %6, align 4
  %152 = add nsw i32 %151, 1
  store i32 %152, i32* %6, align 4
  br label %119

153:                                              ; preds = %119
  %154 = load i32, i32* %12, align 4
  %155 = sub nsw i32 %154, 1
  %156 = sext i32 %155 to i64
  %157 = getelementptr inbounds [1000 x [1000 x i8]], [1000 x [1000 x i8]]* %5, i64 0, i64 %156
  %158 = getelementptr inbounds [1000 x i8], [1000 x i8]* %157, i64 0, i64 0
  %159 = call i32 (i8*, ...) @printf(i8* getelementptr inbounds ([4 x i8], [4 x i8]* @.str, i64 0, i64 0), i8* %158)
  br label %160

160:                                              ; preds = %153, %115
  ret i32 0
}

; Function Attrs: argmemonly nounwind willreturn
declare void @llvm.memset.p0i8.i64(i8* nocapture writeonly, i8, i64, i1 immarg) #1

declare dso_local i32 @gets(...) #2

; Function Attrs: nounwind readonly
declare dso_local i64 @strlen(i8*) #3

; Function Attrs: nounwind readonly
declare dso_local i32 @strcmp(i8*, i8*) #3

; Function Attrs: nounwind
declare dso_local i8* @strcpy(i8*, i8*) #4

declare dso_local i32 @printf(i8*, ...) #2


!llvm.module.flags = !{!0}
!llvm.ident = !{!1}

!0 = !{i32 1, !"wchar_size", i32 4}
!1 = !{!"clang version 10.0.0-4ubuntu1 "}
